target datalayout = "e-m:e-p270:32:32-p271:32:32-p272:64:64-i64:64-i128:128-f80:128-n8:16:32:64-S128"
target triple = "x86_64-pc-linux-gnu"

%struct.Proto = type { ptr, i8, i8, i8, i8, i8, i32, i32, i32, i32, i32, i32, i32, i32, i32, ptr, ptr, ptr, ptr, ptr, ptr, ptr, ptr, ptr }
%struct.lua_State = type { ptr, i8, i8, i8, i8, i16, %union.StkIdRel, ptr, ptr, %union.StkIdRel, %union.StkIdRel, ptr, %union.StkIdRel, ptr, ptr, ptr, %struct.CallInfo, ptr, i64, i32, i32, i32, i32, i32, %struct.anon.2 }
%union.StkIdRel = type { ptr }
%struct.CallInfo = type { %union.StkIdRel, %union.StkIdRel, ptr, ptr, %union.anon, %union.anon.1, i32 }
%union.anon = type { %struct.anon.0 }
%struct.anon.0 = type { ptr, i64, i64 }
%union.anon.1 = type { i32 }
%struct.anon.2 = type { i32, i32 }
%struct.anon = type { ptr, i32, i32 }
%union.StackValue = type { %struct.TValue }
%struct.TValue = type { %union.Value, i8 }
%union.Value = type { ptr }
%struct.LClosure = type { ptr, i8, i8, i8, ptr, ptr, [1 x ptr] }

@.str = private unnamed_addr constant [12 x i8] c"(temporary)\00", align 1
@.str.1 = private unnamed_addr constant [14 x i8] c"(C temporary)\00", align 1
@.str.9 = private unnamed_addr constant [9 x i8] c"(vararg)\00", align 1

; Function Attrs: nounwind uwtable
define internal i32 @currentpc(ptr noundef %0) #0 {
  %2 = alloca ptr, align 8
  store ptr %0, ptr %2, align 8, !tbaa !47
  %3 = load ptr, ptr %2, align 8, !tbaa !47
  %4 = getelementptr inbounds nuw %struct.CallInfo, ptr %3, i32 0, i32 4
  %5 = getelementptr inbounds nuw %struct.anon, ptr %4, i32 0, i32 0
  %6 = load ptr, ptr %5, align 8, !tbaa !22
  %7 = load ptr, ptr %2, align 8, !tbaa !47
  %8 = getelementptr inbounds nuw %struct.CallInfo, ptr %7, i32 0, i32 0
  %9 = load ptr, ptr %8, align 8, !tbaa !22
  %10 = getelementptr inbounds nuw %struct.TValue, ptr %9, i32 0, i32 0
  %11 = load ptr, ptr %10, align 8, !tbaa !22
  %12 = getelementptr inbounds nuw %struct.LClosure, ptr %11, i32 0, i32 5
  %13 = load ptr, ptr %12, align 8, !tbaa !59
  %14 = getelementptr inbounds nuw %struct.Proto, ptr %13, i32 0, i32 16
  %15 = load ptr, ptr %14, align 8, !tbaa !63
  %16 = ptrtoint ptr %6 to i64
  %17 = ptrtoint ptr %15 to i64
  %18 = sub i64 %16, %17
  %19 = sdiv exact i64 %18, 4
  %20 = trunc i64 %19 to i32
  %21 = sub nsw i32 %20, 1
  ret i32 %21
}

; Function Attrs: nounwind uwtable
define internal ptr @findvararg(ptr noundef %0, i32 noundef %1, ptr noundef %2) #0 {
  %4 = alloca ptr, align 8
  %5 = alloca ptr, align 8
  %6 = alloca i32, align 4
  %7 = alloca ptr, align 8
  %8 = alloca i32, align 4
  %9 = alloca i32, align 4
  store ptr %0, ptr %5, align 8, !tbaa !47
  store i32 %1, ptr %6, align 4, !tbaa !9
  store ptr %2, ptr %7, align 8, !tbaa !54
  %10 = load ptr, ptr %5, align 8, !tbaa !47
  %11 = getelementptr inbounds nuw %struct.CallInfo, ptr %10, i32 0, i32 0
  %12 = load ptr, ptr %11, align 8, !tbaa !22
  %13 = getelementptr inbounds nuw %struct.TValue, ptr %12, i32 0, i32 0
  %14 = load ptr, ptr %13, align 8, !tbaa !22
  %15 = getelementptr inbounds nuw %struct.LClosure, ptr %14, i32 0, i32 5
  %16 = load ptr, ptr %15, align 8, !tbaa !59
  %17 = getelementptr inbounds nuw %struct.Proto, ptr %16, i32 0, i32 4
  %18 = load i8, ptr %17, align 1, !tbaa !62
  %19 = zext i8 %18 to i32
  %20 = and i32 %19, 1
  %21 = icmp ne i32 %20, 0
  br i1 %21, label %22, label %49

22:                                               ; preds = %3
  call void @llvm.lifetime.start.p0(i64 4, ptr %8) #8
  %23 = load ptr, ptr %5, align 8, !tbaa !47
  %24 = getelementptr inbounds nuw %struct.CallInfo, ptr %23, i32 0, i32 4
  %25 = getelementptr inbounds nuw %struct.anon, ptr %24, i32 0, i32 2
  %26 = load i32, ptr %25, align 4, !tbaa !22
  store i32 %26, ptr %8, align 4, !tbaa !9
  %27 = load i32, ptr %6, align 4, !tbaa !9
  %28 = load i32, ptr %8, align 4, !tbaa !9
  %29 = sub nsw i32 0, %28
  %30 = icmp sge i32 %27, %29
  br i1 %30, label %31, label %45

31:                                               ; preds = %22
  %32 = load ptr, ptr %5, align 8, !tbaa !47
  %33 = getelementptr inbounds nuw %struct.CallInfo, ptr %32, i32 0, i32 0
  %34 = load ptr, ptr %33, align 8, !tbaa !22
  %35 = load i32, ptr %8, align 4, !tbaa !9
  %36 = sext i32 %35 to i64
  %37 = sub i64 0, %36
  %38 = getelementptr inbounds %union.StackValue, ptr %34, i64 %37
  %39 = load i32, ptr %6, align 4, !tbaa !9
  %40 = add nsw i32 %39, 1
  %41 = sext i32 %40 to i64
  %42 = sub i64 0, %41
  %43 = getelementptr inbounds %union.StackValue, ptr %38, i64 %42
  %44 = load ptr, ptr %7, align 8, !tbaa !54
  store ptr %43, ptr %44, align 8, !tbaa !56
  store ptr @.str.9, ptr %4, align 8
  store i32 1, ptr %9, align 4
  br label %46

45:                                               ; preds = %22
  store i32 0, ptr %9, align 4
  br label %46

46:                                               ; preds = %45, %31
  call void @llvm.lifetime.end.p0(i64 4, ptr %8) #8
  %47 = load i32, ptr %9, align 4
  switch i32 %47, label %52 [
    i32 0, label %48
    i32 1, label %50
  ]

48:                                               ; preds = %46
  br label %49

49:                                               ; preds = %48, %3
  store ptr null, ptr %4, align 8
  br label %50

50:                                               ; preds = %49, %46
  %51 = load ptr, ptr %4, align 8
  ret ptr %51

52:                                               ; preds = %46
  unreachable
}

; Function Attrs: nounwind uwtable
define hidden ptr @luaG_findlocal(ptr noundef %0, ptr noundef %1, i32 noundef %2, ptr noundef %3) #0 {
  %5 = alloca ptr, align 8
  %6 = alloca ptr, align 8
  %7 = alloca ptr, align 8
  %8 = alloca i32, align 4
  %9 = alloca ptr, align 8
  %10 = alloca ptr, align 8
  %11 = alloca ptr, align 8
  %12 = alloca i32, align 4
  %13 = alloca ptr, align 8
  store ptr %0, ptr %6, align 8, !tbaa !30
  store ptr %1, ptr %7, align 8, !tbaa !47
  store i32 %2, ptr %8, align 4, !tbaa !9
  store ptr %3, ptr %9, align 8, !tbaa !54
  call void @llvm.lifetime.start.p0(i64 8, ptr %10) #8
  %14 = load ptr, ptr %7, align 8, !tbaa !47
  %15 = getelementptr inbounds nuw %struct.CallInfo, ptr %14, i32 0, i32 0
  %16 = load ptr, ptr %15, align 8, !tbaa !22
  %17 = getelementptr inbounds %union.StackValue, ptr %16, i64 1
  store ptr %17, ptr %10, align 8, !tbaa !56
  call void @llvm.lifetime.start.p0(i64 8, ptr %11) #8
  store ptr null, ptr %11, align 8, !tbaa !58
  %18 = load ptr, ptr %7, align 8, !tbaa !47
  %19 = getelementptr inbounds nuw %struct.CallInfo, ptr %18, i32 0, i32 6
  %20 = load i32, ptr %19, align 4, !tbaa !48
  %21 = and i32 %20, 32768
  %22 = icmp ne i32 %21, 0
  br i1 %22, label %44, label %23

23:                                               ; preds = %4
  %24 = load i32, ptr %8, align 4, !tbaa !9
  %25 = icmp slt i32 %24, 0
  br i1 %25, label %26, label %31

26:                                               ; preds = %23
  %27 = load ptr, ptr %7, align 8, !tbaa !47
  %28 = load i32, ptr %8, align 4, !tbaa !9
  %29 = load ptr, ptr %9, align 8, !tbaa !54
  %30 = call ptr @findvararg(ptr noundef %27, i32 noundef %28, ptr noundef %29)
  store ptr %30, ptr %5, align 8
  store i32 1, ptr %12, align 4
  br label %102

31:                                               ; preds = %23
  %32 = load ptr, ptr %7, align 8, !tbaa !47
  %33 = getelementptr inbounds nuw %struct.CallInfo, ptr %32, i32 0, i32 0
  %34 = load ptr, ptr %33, align 8, !tbaa !22
  %35 = getelementptr inbounds nuw %struct.TValue, ptr %34, i32 0, i32 0
  %36 = load ptr, ptr %35, align 8, !tbaa !22
  %37 = getelementptr inbounds nuw %struct.LClosure, ptr %36, i32 0, i32 5
  %38 = load ptr, ptr %37, align 8, !tbaa !59
  %39 = load i32, ptr %8, align 4, !tbaa !9
  %40 = load ptr, ptr %7, align 8, !tbaa !47
  %41 = call i32 @currentpc(ptr noundef %40)
  %42 = call ptr @luaF_getlocalname(ptr noundef %38, i32 noundef %39, i32 noundef %41)
  store ptr %42, ptr %11, align 8, !tbaa !58
  br label %43

43:                                               ; preds = %31
  br label %44

44:                                               ; preds = %43, %4
  %45 = load ptr, ptr %11, align 8, !tbaa !58
  %46 = icmp eq ptr %45, null
  br i1 %46, label %47, label %90

47:                                               ; preds = %44
  call void @llvm.lifetime.start.p0(i64 8, ptr %13) #8
  %48 = load ptr, ptr %7, align 8, !tbaa !47
  %49 = load ptr, ptr %6, align 8, !tbaa !30
  %50 = getelementptr inbounds nuw %struct.lua_State, ptr %49, i32 0, i32 8
  %51 = load ptr, ptr %50, align 8, !tbaa !46
  %52 = icmp eq ptr %48, %51
  br i1 %52, label %53, label %57

53:                                               ; preds = %47
  %54 = load ptr, ptr %6, align 8, !tbaa !30
  %55 = getelementptr inbounds nuw %struct.lua_State, ptr %54, i32 0, i32 6
  %56 = load ptr, ptr %55, align 8, !tbaa !22
  br label %63

57:                                               ; preds = %47
  %58 = load ptr, ptr %7, align 8, !tbaa !47
  %59 = getelementptr inbounds nuw %struct.CallInfo, ptr %58, i32 0, i32 3
  %60 = load ptr, ptr %59, align 8, !tbaa !61
  %61 = getelementptr inbounds nuw %struct.CallInfo, ptr %60, i32 0, i32 0
  %62 = load ptr, ptr %61, align 8, !tbaa !22
  br label %63

63:                                               ; preds = %57, %53
  %64 = phi ptr [ %56, %53 ], [ %62, %57 ]
  store ptr %64, ptr %13, align 8, !tbaa !56
  %65 = load ptr, ptr %13, align 8, !tbaa !56
  %66 = load ptr, ptr %10, align 8, !tbaa !56
  %67 = ptrtoint ptr %65 to i64
  %68 = ptrtoint ptr %66 to i64
  %69 = sub i64 %67, %68
  %70 = sdiv exact i64 %69, 16
  %71 = load i32, ptr %8, align 4, !tbaa !9
  %72 = sext i32 %71 to i64
  %73 = icmp sge i64 %70, %72
  br i1 %73, label %74, label %85

74:                                               ; preds = %63
  %75 = load i32, ptr %8, align 4, !tbaa !9
  %76 = icmp sgt i32 %75, 0
  br i1 %76, label %77, label %85

77:                                               ; preds = %74
  %78 = load ptr, ptr %7, align 8, !tbaa !47
  %79 = getelementptr inbounds nuw %struct.CallInfo, ptr %78, i32 0, i32 6
  %80 = load i32, ptr %79, align 4, !tbaa !48
  %81 = and i32 %80, 32768
  %82 = icmp ne i32 %81, 0
  %83 = xor i1 %82, true
  %84 = select i1 %83, ptr @.str, ptr @.str.1
  store ptr %84, ptr %11, align 8, !tbaa !58
  br label %86

85:                                               ; preds = %74, %63
  store ptr null, ptr %5, align 8
  store i32 1, ptr %12, align 4
  br label %87

86:                                               ; preds = %77
  store i32 0, ptr %12, align 4
  br label %87

87:                                               ; preds = %86, %85
  call void @llvm.lifetime.end.p0(i64 8, ptr %13) #8
  %88 = load i32, ptr %12, align 4
  switch i32 %88, label %102 [
    i32 0, label %89
  ]

89:                                               ; preds = %87
  br label %90

90:                                               ; preds = %89, %44
  %91 = load ptr, ptr %9, align 8, !tbaa !54
  %92 = icmp ne ptr %91, null
  br i1 %92, label %93, label %100

93:                                               ; preds = %90
  %94 = load ptr, ptr %10, align 8, !tbaa !56
  %95 = load i32, ptr %8, align 4, !tbaa !9
  %96 = sub nsw i32 %95, 1
  %97 = sext i32 %96 to i64
  %98 = getelementptr inbounds %union.StackValue, ptr %94, i64 %97
  %99 = load ptr, ptr %9, align 8, !tbaa !54
  store ptr %98, ptr %99, align 8, !tbaa !56
  br label %100

100:                                              ; preds = %93, %90
  %101 = load ptr, ptr %11, align 8, !tbaa !58
  store ptr %101, ptr %5, align 8
  store i32 1, ptr %12, align 4
  br label %102

102:                                              ; preds = %100, %87, %26
  call void @llvm.lifetime.end.p0(i64 8, ptr %11) #8
  call void @llvm.lifetime.end.p0(i64 8, ptr %10) #8
  %103 = load ptr, ptr %5, align 8
  ret ptr %103
}