; Function Attrs: nounwind uwtable
define hidden ptr @luaG_findlocal(ptr noundef readonly captures(none) %0, ptr noundef readonly captures(address) %1, i32 noundef %2, ptr noundef writeonly captures(address_is_null) %3) local_unnamed_addr #6 {
  %5 = load ptr, ptr %1, align 8, !tbaa !24
  %6 = getelementptr inbounds nuw i8, ptr %5, i64 16
  %7 = getelementptr inbounds nuw i8, ptr %1, i64 60
  %8 = load i32, ptr %7, align 4, !tbaa !40
  %9 = and i32 %8, 32768
  %.not = icmp eq i32 %9, 0
  br i1 %.not, label %10, label %.thread

10:                                               ; preds = %4
  %11 = icmp slt i32 %2, 0
  %12 = load ptr, ptr %5, align 8, !tbaa !24
  %13 = getelementptr inbounds nuw i8, ptr %12, i64 24
  %14 = load ptr, ptr %13, align 8, !tbaa !45
  br i1 %11, label %15, label %29

15:                                               ; preds = %10
  %16 = getelementptr inbounds nuw i8, ptr %14, i64 11
  %17 = load i8, ptr %16, align 1, !tbaa !48
  %18 = and i8 %17, 1
  %.not.i = icmp eq i8 %18, 0
  br i1 %.not.i, label %findvararg.exit, label %19

19:                                               ; preds = %15
  %20 = getelementptr inbounds nuw i8, ptr %1, i64 44
  %21 = load i32, ptr %20, align 4, !tbaa !24
  %22 = sub nsw i32 0, %21
  %.not11.not.i = icmp slt i32 %2, %22
  br i1 %.not11.not.i, label %findvararg.exit, label %23

23:                                               ; preds = %19
  %24 = sext i32 %21 to i64
  %25 = sub nsw i64 0, %24
  %26 = getelementptr inbounds %union.StackValue, ptr %5, i64 %25
  %narrow.i = xor i32 %2, -1
  %27 = zext nneg i32 %narrow.i to i64
  %28 = getelementptr inbounds nuw %union.StackValue, ptr %26, i64 %27
  br label %findvararg.exit.sink.split

29:                                               ; preds = %10
  %30 = getelementptr i8, ptr %1, i64 32
  %.val34 = load ptr, ptr %30, align 8, !tbaa !24
  %31 = getelementptr i8, ptr %14, i64 64
  %.val.val.val.val = load ptr, ptr %31, align 8, !tbaa !49
  %32 = ptrtoint ptr %.val34 to i64
  %33 = ptrtoint ptr %.val.val.val.val to i64
  %34 = sub i64 %32, %33
  %35 = lshr exact i64 %34, 2
  %36 = trunc i64 %35 to i32
  %37 = add nsw i32 %36, -1
  %38 = tail call ptr @luaF_getlocalname(ptr noundef %14, i32 noundef %2, i32 noundef %37) #13
  %39 = icmp eq ptr %38, null
  br i1 %39, label %.thread, label %60

.thread:                                          ; preds = %4, %29
  %40 = getelementptr inbounds nuw i8, ptr %0, i64 32
  %41 = load ptr, ptr %40, align 8, !tbaa !39
  %42 = icmp eq ptr %1, %41
  br i1 %42, label %43, label %45

43:                                               ; preds = %.thread
  %44 = getelementptr inbounds nuw i8, ptr %0, i64 16
  br label %48

45:                                               ; preds = %.thread
  %46 = getelementptr inbounds nuw i8, ptr %1, i64 24
  %47 = load ptr, ptr %46, align 8, !tbaa !50
  br label %48

48:                                               ; preds = %45, %43
  %.in = phi ptr [ %44, %43 ], [ %47, %45 ]
  %49 = load ptr, ptr %.in, align 8, !tbaa !24
  %50 = ptrtoint ptr %49 to i64
  %51 = ptrtoint ptr %6 to i64
  %52 = sub i64 %50, %51
  %53 = ashr exact i64 %52, 4
  %54 = sext i32 %2 to i64
  %55 = icmp sge i64 %53, %54
  %56 = icmp sgt i32 %2, 0
  %or.cond = and i1 %56, %55
  br i1 %or.cond, label %.thread36, label %findvararg.exit

.thread36:                                        ; preds = %48
  %57 = load i32, ptr %7, align 4, !tbaa !40
  %58 = and i32 %57, 32768
  %.not32 = icmp eq i32 %58, 0
  %59 = select i1 %.not32, ptr @.str, ptr @.str.1
  br label %60

60:                                               ; preds = %.thread36, %29
  %.128 = phi ptr [ %38, %29 ], [ %59, %.thread36 ]
  %.not33 = icmp eq ptr %3, null
  br i1 %.not33, label %findvararg.exit, label %61

61:                                               ; preds = %60
  %62 = zext nneg i32 %2 to i64
  %63 = getelementptr %union.StackValue, ptr %6, i64 %62
  %64 = getelementptr i8, ptr %63, i64 -16
  br label %findvararg.exit.sink.split

findvararg.exit.sink.split:                       ; preds = %61, %23
  %.sink = phi ptr [ %28, %23 ], [ %64, %61 ]
  %.0.ph = phi ptr [ @.str.9, %23 ], [ %.128, %61 ]
  store ptr %.sink, ptr %3, align 8, !tbaa !51
  br label %findvararg.exit

findvararg.exit:                                  ; preds = %findvararg.exit.sink.split, %48, %19, %15, %60
  %.0 = phi ptr [ %.128, %60 ], [ null, %15 ], [ null, %19 ], [ null, %48 ], [ %.0.ph, %findvararg.exit.sink.split ]
  ret ptr %.0
}